target datalayout = "e-m:e-p270:32:32-p271:32:32-p272:64:64-i64:64-i128:128-f80:128-n8:16:32:64-S128"
target triple = "x86_64-pc-linux-gnu"

%struct.text_buffer = type { ptr, i64, i64 }

; Function Attrs: nounwind uwtable
define internal i32 @textbuffer_putc(ptr noundef %0, i8 noundef signext %1) #0 {
  %3 = alloca i32, align 4
  %4 = alloca ptr, align 8
  %5 = alloca i8, align 1
  store ptr %0, ptr %4, align 8
  store i8 %1, ptr %5, align 1
  %6 = load ptr, ptr %4, align 8
  %7 = call i32 @textbuffer_ensure_capacity(ptr noundef %6, i64 noundef 1)
  %8 = icmp eq i32 %7, -1
  br i1 %8, label %9, label %10

9:                                                ; preds = %2
  store i32 -1, ptr %3, align 4
  br label %20

10:                                               ; preds = %2
  %11 = load i8, ptr %5, align 1
  %12 = load ptr, ptr %4, align 8
  %13 = getelementptr inbounds %struct.text_buffer, ptr %12, i32 0, i32 0
  %14 = load ptr, ptr %13, align 8
  %15 = load ptr, ptr %4, align 8
  %16 = getelementptr inbounds %struct.text_buffer, ptr %15, i32 0, i32 1
  %17 = load i64, ptr %16, align 8
  %18 = add i64 %17, 1
  store i64 %18, ptr %16, align 8
  %19 = getelementptr inbounds i8, ptr %14, i64 %17
  store i8 %11, ptr %19, align 1
  store i32 0, ptr %3, align 4
  br label %20

20:                                               ; preds = %10, %9
  %21 = load i32, ptr %3, align 4
  ret i32 %21
}

; Function Attrs: nounwind uwtable
define internal i64 @output_utf8(i16 noundef zeroext %0, ptr noundef %1) #0 {
  %3 = alloca i64, align 8
  %4 = alloca i16, align 2
  %5 = alloca ptr, align 8
  store i16 %0, ptr %4, align 2
  store ptr %1, ptr %5, align 8
  %6 = load i16, ptr %4, align 2
  %7 = icmp ne i16 %6, 0
  br i1 %7, label %10, label %8

8:                                                ; preds = %2
  %9 = load ptr, ptr %5, align 8
  store i8 1, ptr %9, align 1
  store i64 1, ptr %3, align 8
  br label %60

10:                                               ; preds = %2
  %11 = load i16, ptr %4, align 2
  %12 = zext i16 %11 to i32
  %13 = icmp slt i32 %12, 128
  br i1 %13, label %14, label %20

14:                                               ; preds = %10
  %15 = load i16, ptr %4, align 2
  %16 = zext i16 %15 to i32
  %17 = and i32 %16, 255
  %18 = trunc i32 %17 to i8
  %19 = load ptr, ptr %5, align 8
  store i8 %18, ptr %19, align 1
  store i64 1, ptr %3, align 8
  br label %60

20:                                               ; preds = %10
  %21 = load i16, ptr %4, align 2
  %22 = zext i16 %21 to i32
  %23 = icmp slt i32 %22, 2048
  br i1 %23, label %24, label %38

24:                                               ; preds = %20
  %25 = load i16, ptr %4, align 2
  %26 = zext i16 %25 to i32
  %27 = ashr i32 %26, 6
  %28 = or i32 192, %27
  %29 = trunc i32 %28 to i8
  %30 = load ptr, ptr %5, align 8
  %31 = getelementptr inbounds i8, ptr %30, i32 1
  store ptr %31, ptr %5, align 8
  store i8 %29, ptr %30, align 1
  %32 = load i16, ptr %4, align 2
  %33 = zext i16 %32 to i32
  %34 = and i32 %33, 63
  %35 = or i32 128, %34
  %36 = trunc i32 %35 to i8
  %37 = load ptr, ptr %5, align 8
  store i8 %36, ptr %37, align 1
  store i64 2, ptr %3, align 8
  br label %60

38:                                               ; preds = %20
  %39 = load i16, ptr %4, align 2
  %40 = zext i16 %39 to i32
  %41 = ashr i32 %40, 12
  %42 = or i32 224, %41
  %43 = trunc i32 %42 to i8
  %44 = load ptr, ptr %5, align 8
  %45 = getelementptr inbounds i8, ptr %44, i32 1
  store ptr %45, ptr %5, align 8
  store i8 %43, ptr %44, align 1
  %46 = load i16, ptr %4, align 2
  %47 = zext i16 %46 to i32
  %48 = ashr i32 %47, 6
  %49 = and i32 %48, 63
  %50 = or i32 128, %49
  %51 = trunc i32 %50 to i8
  %52 = load ptr, ptr %5, align 8
  %53 = getelementptr inbounds i8, ptr %52, i32 1
  store ptr %53, ptr %5, align 8
  store i8 %51, ptr %52, align 1
  %54 = load i16, ptr %4, align 2
  %55 = zext i16 %54 to i32
  %56 = and i32 %55, 63
  %57 = or i32 128, %56
  %58 = trunc i32 %57 to i8
  %59 = load ptr, ptr %5, align 8
  store i8 %58, ptr %59, align 1
  store i64 3, ptr %3, align 8
  br label %60

60:                                               ; preds = %38, %24, %14, %8
  %61 = load i64, ptr %3, align 8
  ret i64 %61
}

; Function Attrs: nounwind uwtable
define internal i32 @textbuffer_ensure_capacity(ptr noundef %0, i64 noundef %1) #0 {
  %3 = alloca i32, align 4
  %4 = alloca ptr, align 8
  %5 = alloca i64, align 8
  %6 = alloca ptr, align 8
  %7 = alloca i32, align 4
  store ptr %0, ptr %4, align 8
  store i64 %1, ptr %5, align 8
  %8 = load ptr, ptr %4, align 8
  %9 = getelementptr inbounds %struct.text_buffer, ptr %8, i32 0, i32 1
  %10 = load i64, ptr %9, align 8
  %11 = load i64, ptr %5, align 8
  %12 = add i64 %10, %11
  %13 = load ptr, ptr %4, align 8
  %14 = getelementptr inbounds %struct.text_buffer, ptr %13, i32 0, i32 2
  %15 = load i64, ptr %14, align 8
  %16 = icmp ugt i64 %12, %15
  br i1 %16, label %17, label %59

17:                                               ; preds = %2
  %18 = load ptr, ptr %4, align 8
  %19 = getelementptr inbounds %struct.text_buffer, ptr %18, i32 0, i32 1
  %20 = load i64, ptr %19, align 8
  %21 = load i64, ptr %5, align 8
  %22 = add i64 %20, %21
  %23 = load ptr, ptr %4, align 8
  %24 = getelementptr inbounds %struct.text_buffer, ptr %23, i32 0, i32 2
  %25 = load i64, ptr %24, align 8
  %26 = add i64 %25, 4096
  %27 = icmp ugt i64 %22, %26
  br i1 %27, label %28, label %34

28:                                               ; preds = %17
  %29 = load ptr, ptr %4, align 8
  %30 = getelementptr inbounds %struct.text_buffer, ptr %29, i32 0, i32 1
  %31 = load i64, ptr %30, align 8
  %32 = load i64, ptr %5, align 8
  %33 = add i64 %31, %32
  br label %39

34:                                               ; preds = %17
  %35 = load ptr, ptr %4, align 8
  %36 = getelementptr inbounds %struct.text_buffer, ptr %35, i32 0, i32 2
  %37 = load i64, ptr %36, align 8
  %38 = add i64 %37, 4096
  br label %39

39:                                               ; preds = %34, %28
  %40 = phi i64 [ %33, %28 ], [ %38, %34 ]
  %41 = trunc i64 %40 to i32
  store i32 %41, ptr %7, align 4
  %42 = load ptr, ptr %4, align 8
  %43 = getelementptr inbounds %struct.text_buffer, ptr %42, i32 0, i32 0
  %44 = load ptr, ptr %43, align 8
  %45 = load i32, ptr %7, align 4
  %46 = zext i32 %45 to i64
  %47 = call ptr @cli_max_realloc(ptr noundef %44, i64 noundef %46)
  store ptr %47, ptr %6, align 8
  %48 = load ptr, ptr %6, align 8
  %49 = icmp ne ptr %48, null
  br i1 %49, label %51, label %50

50:                                               ; preds = %39
  store i32 -1, ptr %3, align 4
  br label %60

51:                                               ; preds = %39
  %52 = load i32, ptr %7, align 4
  %53 = zext i32 %52 to i64
  %54 = load ptr, ptr %4, align 8
  %55 = getelementptr inbounds %struct.text_buffer, ptr %54, i32 0, i32 2
  store i64 %53, ptr %55, align 8
  %56 = load ptr, ptr %6, align 8
  %57 = load ptr, ptr %4, align 8
  %58 = getelementptr inbounds %struct.text_buffer, ptr %57, i32 0, i32 0
  store ptr %56, ptr %58, align 8
  br label %59

59:                                               ; preds = %51, %2
  store i32 0, ptr %3, align 4
  br label %60

60:                                               ; preds = %59, %50
  %61 = load i32, ptr %3, align 4
  ret i32 %61
}

; Function Attrs: nounwind uwtable
define internal i32 @cli_hex2int(i8 noundef signext %0) #0 {
  %2 = alloca i8, align 1
  store i8 %0, ptr %2, align 1
  %3 = load i8, ptr %2, align 1
  %4 = zext i8 %3 to i64
  %5 = getelementptr inbounds [256 x i32], ptr @hex_chars, i64 0, i64 %4
  %6 = load i32, ptr %5, align 4
  ret i32 %6
}

; Function Attrs: nounwind uwtable
define i32 @cli_textbuffer_append_normalize(ptr noundef %0, ptr noundef %1, i64 noundef %2) #0 {
  %4 = alloca i32, align 4
  %5 = alloca ptr, align 8
  %6 = alloca ptr, align 8
  %7 = alloca i64, align 8
  %8 = alloca i64, align 8
  %9 = alloca i8, align 1
  %10 = alloca i16, align 2
  store ptr %0, ptr %5, align 8
  store ptr %1, ptr %6, align 8
  store i64 %2, ptr %7, align 8
  store i64 0, ptr %8, align 8
  br label %11

11:                                               ; preds = %186, %3
  %12 = load i64, ptr %8, align 8
  %13 = load i64, ptr %7, align 8
  %14 = icmp ult i64 %12, %13
  br i1 %14, label %15, label %189

15:                                               ; preds = %11
  %16 = load ptr, ptr %6, align 8
  %17 = load i64, ptr %8, align 8
  %18 = getelementptr inbounds i8, ptr %16, i64 %17
  %19 = load i8, ptr %18, align 1
  store i8 %19, ptr %9, align 1
  %20 = load i8, ptr %9, align 1
  %21 = sext i8 %20 to i32
  %22 = icmp eq i32 %21, 92
  br i1 %22, label %23, label %175

23:                                               ; preds = %15
  %24 = load i64, ptr %8, align 8
  %25 = add i64 %24, 1
  %26 = load i64, ptr %7, align 8
  %27 = icmp ult i64 %25, %26
  br i1 %27, label %28, label %175

28:                                               ; preds = %23
  %29 = load i64, ptr %8, align 8
  %30 = add i64 %29, 1
  store i64 %30, ptr %8, align 8
  %31 = load ptr, ptr %6, align 8
  %32 = load i64, ptr %8, align 8
  %33 = getelementptr inbounds i8, ptr %31, i64 %32
  %34 = load i8, ptr %33, align 1
  %35 = sext i8 %34 to i32
  switch i32 %35, label %169 [
    i32 48, label %36
    i32 98, label %37
    i32 116, label %38
    i32 110, label %39
    i32 118, label %40
    i32 102, label %41
    i32 114, label %42
    i32 120, label %43
    i32 117, label %78
  ]

36:                                               ; preds = %28
  store i8 0, ptr %9, align 1
  br label %174

37:                                               ; preds = %28
  store i8 8, ptr %9, align 1
  br label %174

38:                                               ; preds = %28
  store i8 9, ptr %9, align 1
  br label %174

39:                                               ; preds = %28
  store i8 10, ptr %9, align 1
  br label %174

40:                                               ; preds = %28
  store i8 11, ptr %9, align 1
  br label %174

41:                                               ; preds = %28
  store i8 12, ptr %9, align 1
  br label %174

42:                                               ; preds = %28
  store i8 13, ptr %9, align 1
  br label %174

43:                                               ; preds = %28
  %44 = load i64, ptr %8, align 8
  %45 = add i64 %44, 2
  %46 = load i64, ptr %7, align 8
  %47 = icmp ult i64 %45, %46
  br i1 %47, label %48, label %75

48:                                               ; preds = %43
  %49 = load ptr, ptr %6, align 8
  %50 = load i64, ptr %8, align 8
  %51 = add i64 %50, 1
  %52 = getelementptr inbounds i8, ptr %49, i64 %51
  %53 = load i8, ptr %52, align 1
  %54 = call i32 @cli_hex2int(i8 noundef signext %53)
  %55 = icmp slt i32 %54, 0
  br i1 %55, label %56, label %57

56:                                               ; preds = %48
  br label %64

57:                                               ; preds = %48
  %58 = load ptr, ptr %6, align 8
  %59 = load i64, ptr %8, align 8
  %60 = add i64 %59, 1
  %61 = getelementptr inbounds i8, ptr %58, i64 %60
  %62 = load i8, ptr %61, align 1
  %63 = call i32 @cli_hex2int(i8 noundef signext %62)
  br label %64

64:                                               ; preds = %57, %56
  %65 = phi i32 [ 0, %56 ], [ %63, %57 ]
  %66 = shl i32 %65, 4
  %67 = load ptr, ptr %6, align 8
  %68 = load i64, ptr %8, align 8
  %69 = add i64 %68, 2
  %70 = getelementptr inbounds i8, ptr %67, i64 %69
  %71 = load i8, ptr %70, align 1
  %72 = call i32 @cli_hex2int(i8 noundef signext %71)
  %73 = or i32 %66, %72
  %74 = trunc i32 %73 to i8
  store i8 %74, ptr %9, align 1
  br label %75

75:                                               ; preds = %64, %43
  %76 = load i64, ptr %8, align 8
  %77 = add i64 %76, 2
  store i64 %77, ptr %8, align 8
  br label %174

78:                                               ; preds = %28
  %79 = load i64, ptr %8, align 8
  %80 = add i64 %79, 4
  %81 = load i64, ptr %7, align 8
  %82 = icmp ult i64 %80, %81
  br i1 %82, label %83, label %168

83:                                               ; preds = %78
  %84 = load ptr, ptr %6, align 8
  %85 = load i64, ptr %8, align 8
  %86 = add i64 %85, 1
  %87 = getelementptr inbounds i8, ptr %84, i64 %86
  %88 = load i8, ptr %87, align 1
  %89 = call i32 @cli_hex2int(i8 noundef signext %88)
  %90 = icmp slt i32 %89, 0
  br i1 %90, label %91, label %92

91:                                               ; preds = %83
  br label %99

92:                                               ; preds = %83
  %93 = load ptr, ptr %6, align 8
  %94 = load i64, ptr %8, align 8
  %95 = add i64 %94, 1
  %96 = getelementptr inbounds i8, ptr %93, i64 %95
  %97 = load i8, ptr %96, align 1
  %98 = call i32 @cli_hex2int(i8 noundef signext %97)
  br label %99

99:                                               ; preds = %92, %91
  %100 = phi i32 [ 0, %91 ], [ %98, %92 ]
  %101 = shl i32 %100, 12
  %102 = load ptr, ptr %6, align 8
  %103 = load i64, ptr %8, align 8
  %104 = add i64 %103, 2
  %105 = getelementptr inbounds i8, ptr %102, i64 %104
  %106 = load i8, ptr %105, align 1
  %107 = call i32 @cli_hex2int(i8 noundef signext %106)
  %108 = icmp slt i32 %107, 0
  br i1 %108, label %109, label %110

109:                                              ; preds = %99
  br label %117

110:                                              ; preds = %99
  %111 = load ptr, ptr %6, align 8
  %112 = load i64, ptr %8, align 8
  %113 = add i64 %112, 2
  %114 = getelementptr inbounds i8, ptr %111, i64 %113
  %115 = load i8, ptr %114, align 1
  %116 = call i32 @cli_hex2int(i8 noundef signext %115)
  br label %117

117:                                              ; preds = %110, %109
  %118 = phi i32 [ 0, %109 ], [ %116, %110 ]
  %119 = shl i32 %118, 8
  %120 = or i32 %101, %119
  %121 = load ptr, ptr %6, align 8
  %122 = load i64, ptr %8, align 8
  %123 = add i64 %122, 3
  %124 = getelementptr inbounds i8, ptr %121, i64 %123
  %125 = load i8, ptr %124, align 1
  %126 = call i32 @cli_hex2int(i8 noundef signext %125)
  %127 = icmp slt i32 %126, 0
  br i1 %127, label %128, label %129

128:                                              ; preds = %117
  br label %136

129:                                              ; preds = %117
  %130 = load ptr, ptr %6, align 8
  %131 = load i64, ptr %8, align 8
  %132 = add i64 %131, 3
  %133 = getelementptr inbounds i8, ptr %130, i64 %132
  %134 = load i8, ptr %133, align 1
  %135 = call i32 @cli_hex2int(i8 noundef signext %134)
  br label %136

136:                                              ; preds = %129, %128
  %137 = phi i32 [ 0, %128 ], [ %135, %129 ]
  %138 = shl i32 %137, 4
  %139 = or i32 %120, %138
  %140 = load ptr, ptr %6, align 8
  %141 = load i64, ptr %8, align 8
  %142 = add i64 %141, 4
  %143 = getelementptr inbounds i8, ptr %140, i64 %142
  %144 = load i8, ptr %143, align 1
  %145 = call i32 @cli_hex2int(i8 noundef signext %144)
  %146 = or i32 %139, %145
  %147 = trunc i32 %146 to i16
  store i16 %147, ptr %10, align 2
  %148 = load ptr, ptr %5, align 8
  %149 = call i32 @textbuffer_ensure_capacity(ptr noundef %148, i64 noundef 4)
  %150 = icmp eq i32 %149, -1
  br i1 %150, label %151, label %152

151:                                              ; preds = %136
  store i32 -1, ptr %4, align 4
  br label %190

152:                                              ; preds = %136
  %153 = load i16, ptr %10, align 2
  %154 = load ptr, ptr %5, align 8
  %155 = getelementptr inbounds %struct.text_buffer, ptr %154, i32 0, i32 0
  %156 = load ptr, ptr %155, align 8
  %157 = load ptr, ptr %5, align 8
  %158 = getelementptr inbounds %struct.text_buffer, ptr %157, i32 0, i32 1
  %159 = load i64, ptr %158, align 8
  %160 = getelementptr inbounds i8, ptr %156, i64 %159
  %161 = call i64 @output_utf8(i16 noundef zeroext %153, ptr noundef %160)
  %162 = load ptr, ptr %5, align 8
  %163 = getelementptr inbounds %struct.text_buffer, ptr %162, i32 0, i32 1
  %164 = load i64, ptr %163, align 8
  %165 = add i64 %164, %161
  store i64 %165, ptr %163, align 8
  %166 = load i64, ptr %8, align 8
  %167 = add i64 %166, 4
  store i64 %167, ptr %8, align 8
  br label %186

168:                                              ; preds = %78
  br label %174

169:                                              ; preds = %28
  %170 = load ptr, ptr %6, align 8
  %171 = load i64, ptr %8, align 8
  %172 = getelementptr inbounds i8, ptr %170, i64 %171
  %173 = load i8, ptr %172, align 1
  store i8 %173, ptr %9, align 1
  br label %174

174:                                              ; preds = %169, %168, %75, %42, %41, %40, %39, %38, %37, %36
  br label %175

175:                                              ; preds = %174, %23, %15
  %176 = load i8, ptr %9, align 1
  %177 = icmp ne i8 %176, 0
  br i1 %177, label %179, label %178

178:                                              ; preds = %175
  store i8 1, ptr %9, align 1
  br label %179

179:                                              ; preds = %178, %175
  %180 = load ptr, ptr %5, align 8
  %181 = load i8, ptr %9, align 1
  %182 = call i32 @textbuffer_putc(ptr noundef %180, i8 noundef signext %181)
  %183 = icmp eq i32 %182, -1
  br i1 %183, label %184, label %185

184:                                              ; preds = %179
  store i32 -1, ptr %4, align 4
  br label %190

185:                                              ; preds = %179
  br label %186

186:                                              ; preds = %185, %152
  %187 = load i64, ptr %8, align 8
  %188 = add i64 %187, 1
  store i64 %188, ptr %8, align 8
  br label %11

189:                                              ; preds = %11
  store i32 0, ptr %4, align 4
  br label %190

190:                                              ; preds = %189, %184, %151
  %191 = load i32, ptr %4, align 4
  ret i32 %191
}