; Function Attrs: nounwind uwtable
define noundef i32 @cli_textbuffer_append_normalize(ptr nocapture noundef %0, ptr nocapture noundef readonly %1, i64 noundef %2) local_unnamed_addr #1 {
  %.not = icmp eq i64 %2, 0
  br i1 %.not, label %textbuffer_ensure_capacity.exit, label %.lr.ph

.lr.ph:                                           ; preds = %3
  %4 = getelementptr inbounds i8, ptr %0, i64 8
  %5 = getelementptr inbounds i8, ptr %0, i64 16
  br label %6

6:                                                ; preds = %.lr.ph, %128
  %.04860 = phi i64 [ 0, %.lr.ph ], [ %129, %128 ]
  %7 = getelementptr inbounds i8, ptr %1, i64 %.04860
  %8 = load i8, ptr %7, align 1
  %9 = icmp eq i8 %8, 92
  br i1 %9, label %10, label %115

10:                                               ; preds = %6
  %11 = add nuw i64 %.04860, 1
  %12 = icmp ult i64 %11, %2
  br i1 %12, label %13, label %115

13:                                               ; preds = %10
  %14 = getelementptr inbounds i8, ptr %1, i64 %11
  %15 = load i8, ptr %14, align 1
  switch i8 %15, label %114 [
    i8 48, label %115
    i8 98, label %16
    i8 116, label %17
    i8 110, label %18
    i8 118, label %19
    i8 102, label %20
    i8 114, label %21
    i8 120, label %22
    i8 117, label %39
  ]

16:                                               ; preds = %13
  br label %115

17:                                               ; preds = %13
  br label %115

18:                                               ; preds = %13
  br label %115

19:                                               ; preds = %13
  br label %115

20:                                               ; preds = %13
  br label %115

21:                                               ; preds = %13
  br label %115

22:                                               ; preds = %13
  %23 = add i64 %.04860, 3
  %24 = icmp ult i64 %23, %2
  br i1 %24, label %25, label %115

25:                                               ; preds = %22
  %26 = getelementptr i8, ptr %7, i64 2
  %27 = load i8, ptr %26, align 1
  %28 = zext i8 %27 to i64
  %29 = getelementptr inbounds [256 x i32], ptr @hex_chars, i64 0, i64 %28
  %30 = load i32, ptr %29, align 4
  %spec.select = tail call i32 @llvm.smax.i32(i32 %30, i32 0)
  %31 = shl i32 %spec.select, 4
  %32 = getelementptr inbounds i8, ptr %1, i64 %23
  %33 = load i8, ptr %32, align 1
  %34 = zext i8 %33 to i64
  %35 = getelementptr inbounds [256 x i32], ptr @hex_chars, i64 0, i64 %34
  %36 = load i32, ptr %35, align 4
  %37 = or i32 %31, %36
  %38 = trunc i32 %37 to i8
  br label %115

39:                                               ; preds = %13
  %40 = add i64 %.04860, 5
  %41 = icmp ult i64 %40, %2
  br i1 %41, label %42, label %115

42:                                               ; preds = %39
  %43 = getelementptr i8, ptr %7, i64 2
  %44 = load i8, ptr %43, align 1
  %45 = zext i8 %44 to i64
  %46 = getelementptr inbounds [256 x i32], ptr @hex_chars, i64 0, i64 %45
  %47 = load i32, ptr %46, align 4
  %spec.select59 = tail call i32 @llvm.smax.i32(i32 %47, i32 0)
  %48 = shl i32 %spec.select59, 12
  %49 = getelementptr i8, ptr %7, i64 3
  %50 = load i8, ptr %49, align 1
  %51 = zext i8 %50 to i64
  %52 = getelementptr inbounds [256 x i32], ptr @hex_chars, i64 0, i64 %51
  %53 = load i32, ptr %52, align 4
  %54 = tail call i32 @llvm.smax.i32(i32 %53, i32 0)
  %55 = shl i32 %54, 8
  %56 = or i32 %55, %48
  %57 = getelementptr i8, ptr %7, i64 4
  %58 = load i8, ptr %57, align 1
  %59 = zext i8 %58 to i64
  %60 = getelementptr inbounds [256 x i32], ptr @hex_chars, i64 0, i64 %59
  %61 = load i32, ptr %60, align 4
  %62 = tail call i32 @llvm.smax.i32(i32 %61, i32 0)
  %63 = getelementptr inbounds i8, ptr %1, i64 %40
  %64 = load i8, ptr %63, align 1
  %65 = zext i8 %64 to i64
  %66 = getelementptr inbounds [256 x i32], ptr @hex_chars, i64 0, i64 %65
  %67 = load i32, ptr %66, align 4
  %68 = load i64, ptr %4, align 8
  %69 = add i64 %68, 4
  %70 = load i64, ptr %5, align 8
  %71 = icmp ugt i64 %69, %70
  %.pre = load ptr, ptr %0, align 8
  br i1 %71, label %72, label %77

72:                                               ; preds = %42
  %73 = add i64 %70, 4096
  %..i = tail call i64 @llvm.umax.i64(i64 %69, i64 %73)
  %74 = and i64 %..i, 4294967295
  %75 = tail call ptr @cli_max_realloc(ptr noundef %.pre, i64 noundef %74) #27
  %.not.i = icmp eq ptr %75, null
  br i1 %.not.i, label %textbuffer_ensure_capacity.exit, label %76

76:                                               ; preds = %72
  store i64 %74, ptr %5, align 8
  store ptr %75, ptr %0, align 8
  %.pre65 = load i64, ptr %4, align 8
  br label %77

77:                                               ; preds = %76, %42
  %78 = phi i64 [ %.pre65, %76 ], [ %68, %42 ]
  %79 = phi ptr [ %75, %76 ], [ %.pre, %42 ]
  %80 = shl i32 %62, 4
  %81 = or i32 %56, %80
  %82 = or i32 %81, %67
  %83 = trunc i32 %82 to i16
  %84 = getelementptr inbounds i8, ptr %79, i64 %78
  %.not.i54 = icmp eq i16 %83, 0
  br i1 %.not.i54, label %85, label %86

85:                                               ; preds = %77
  store i8 1, ptr %84, align 1
  br label %output_utf8.exit

86:                                               ; preds = %77
  %87 = icmp ult i16 %83, 128
  br i1 %87, label %88, label %90

88:                                               ; preds = %86
  %89 = trunc i32 %82 to i8
  store i8 %89, ptr %84, align 1
  br label %output_utf8.exit

90:                                               ; preds = %86
  %91 = icmp ult i16 %83, 2048
  %92 = getelementptr inbounds i8, ptr %84, i64 1
  br i1 %91, label %93, label %100

93:                                               ; preds = %90
  %94 = lshr i32 %82, 6
  %95 = trunc i32 %94 to i8
  %96 = or disjoint i8 %95, -64
  store i8 %96, ptr %84, align 1
  %97 = trunc i32 %82 to i8
  %98 = and i8 %97, 63
  %99 = or disjoint i8 %98, -128
  store i8 %99, ptr %92, align 1
  br label %output_utf8.exit

100:                                              ; preds = %90
  %101 = lshr i16 %83, 12
  %102 = trunc nuw nsw i16 %101 to i8
  %103 = or disjoint i8 %102, -32
  store i8 %103, ptr %84, align 1
  %104 = lshr i32 %82, 6
  %105 = trunc i32 %104 to i8
  %106 = and i8 %105, 63
  %107 = or disjoint i8 %106, -128
  %108 = getelementptr inbounds i8, ptr %84, i64 2
  store i8 %107, ptr %92, align 1
  %109 = trunc i32 %82 to i8
  %110 = and i8 %109, 63
  %111 = or disjoint i8 %110, -128
  store i8 %111, ptr %108, align 1
  br label %output_utf8.exit

output_utf8.exit:                                 ; preds = %85, %88, %93, %100
  %.0.i55 = phi i64 [ 1, %88 ], [ 2, %93 ], [ 3, %100 ], [ 1, %85 ]
  %112 = load i64, ptr %4, align 8
  %113 = add i64 %112, %.0.i55
  store i64 %113, ptr %4, align 8
  br label %128

114:                                              ; preds = %13
  br label %115

115:                                              ; preds = %22, %25, %13, %16, %17, %18, %19, %20, %21, %114, %39, %10, %6
  %.149 = phi i64 [ %11, %114 ], [ %11, %39 ], [ %11, %21 ], [ %11, %20 ], [ %11, %19 ], [ %11, %18 ], [ %11, %17 ], [ %11, %16 ], [ %.04860, %10 ], [ %.04860, %6 ], [ %11, %13 ], [ %23, %25 ], [ %23, %22 ]
  %.1 = phi i8 [ %15, %114 ], [ 92, %39 ], [ 13, %21 ], [ 12, %20 ], [ 11, %19 ], [ 10, %18 ], [ 9, %17 ], [ 8, %16 ], [ 92, %10 ], [ %8, %6 ], [ 0, %13 ], [ %38, %25 ], [ 92, %22 ]
  %spec.store.select = tail call i8 @llvm.umax.i8(i8 %.1, i8 1)
  %116 = load i64, ptr %4, align 8
  %117 = add i64 %116, 1
  %118 = load i64, ptr %5, align 8
  %119 = icmp ugt i64 %117, %118
  %.pre.i = load ptr, ptr %0, align 8
  br i1 %119, label %120, label %textbuffer_putc.exit

120:                                              ; preds = %115
  %121 = add i64 %118, 4096
  %..i.i = tail call i64 @llvm.umax.i64(i64 %117, i64 %121)
  %122 = and i64 %..i.i, 4294967295
  %123 = tail call ptr @cli_max_realloc(ptr noundef %.pre.i, i64 noundef %122) #27
  %.not.i.i = icmp eq ptr %123, null
  br i1 %.not.i.i, label %textbuffer_ensure_capacity.exit, label %124

124:                                              ; preds = %120
  store i64 %122, ptr %5, align 8
  store ptr %123, ptr %0, align 8
  %.pre5.i = load i64, ptr %4, align 8
  %.pre6.i = add i64 %.pre5.i, 1
  br label %textbuffer_putc.exit

textbuffer_putc.exit:                             ; preds = %115, %124
  %.pre-phi.i = phi i64 [ %.pre6.i, %124 ], [ %117, %115 ]
  %125 = phi i64 [ %.pre5.i, %124 ], [ %116, %115 ]
  %126 = phi ptr [ %123, %124 ], [ %.pre.i, %115 ]
  store i64 %.pre-phi.i, ptr %4, align 8
  %127 = getelementptr inbounds i8, ptr %126, i64 %125
  store i8 %spec.store.select, ptr %127, align 1
  br label %128

128:                                              ; preds = %textbuffer_putc.exit, %output_utf8.exit
  %.2 = phi i64 [ %.149, %textbuffer_putc.exit ], [ %40, %output_utf8.exit ]
  %129 = add i64 %.2, 1
  %130 = icmp ult i64 %129, %2
  br i1 %130, label %6, label %textbuffer_ensure_capacity.exit

textbuffer_ensure_capacity.exit:                  ; preds = %128, %72, %120, %3
  %.0 = phi i32 [ 0, %3 ], [ -1, %120 ], [ -1, %72 ], [ 0, %128 ]
  ret i32 %.0
}